target datalayout = "e-m:e-p270:32:32-p271:32:32-p272:64:64-i64:64-i128:128-f80:128-n8:16:32:64-S128"
target triple = "x86_64-pc-linux-gnu"

%struct.AVChannelLayout = type { i32, i32, %union.anon.1, ptr }
%union.anon.1 = type { i64 }
%struct.AVRational = type { i32, i32 }
%struct.AVFrame = type { [8 x ptr], [8 x i32], ptr, i32, i32, i32, i32, i32, %struct.AVRational, i64, i64, %struct.AVRational, i32, ptr, i32, i32, [8 x ptr], ptr, i32, ptr, i32, i32, i32, i32, i32, i32, i32, i64, ptr, i32, ptr, ptr, i64, i64, i64, i64, ptr, %struct.AVChannelLayout, i64 }

@avpriv_cga_font = external constant [2048 x i8], align 16

; Function Attrs: nounwind uwtable
define internal void @idraw_vtext(ptr noundef %0, i32 noundef %1, i32 noundef %2, i32 noundef %3, float noundef %4, float noundef %5, ptr noundef %6, ptr noundef %7) #1 {
  %9 = alloca ptr, align 8
  %10 = alloca i32, align 4
  %11 = alloca i32, align 4
  %12 = alloca i32, align 4
  %13 = alloca float, align 4
  %14 = alloca float, align 4
  %15 = alloca ptr, align 8
  %16 = alloca ptr, align 8
  %17 = alloca ptr, align 8
  %18 = alloca i32, align 4
  %19 = alloca i32, align 4
  %20 = alloca i32, align 4
  %21 = alloca i32, align 4
  %22 = alloca i32, align 4
  %23 = alloca i32, align 4
  %24 = alloca ptr, align 8
  store ptr %0, ptr %9, align 8, !tbaa !61
  store i32 %1, ptr %10, align 4, !tbaa !47
  store i32 %2, ptr %11, align 4, !tbaa !47
  store i32 %3, ptr %12, align 4, !tbaa !47
  store float %4, ptr %13, align 4, !tbaa !69
  store float %5, ptr %14, align 4, !tbaa !69
  store ptr %6, ptr %15, align 8, !tbaa !77
  store ptr %7, ptr %16, align 8, !tbaa !77
  call void @llvm.lifetime.start.p0(i64 8, ptr %17) #10
  call void @llvm.lifetime.start.p0(i64 4, ptr %18) #10
  call void @llvm.lifetime.start.p0(i64 4, ptr %19) #10
  call void @llvm.lifetime.start.p0(i64 4, ptr %20) #10
  store ptr @avpriv_cga_font, ptr %17, align 8, !tbaa !77
  store i32 8, ptr %18, align 4, !tbaa !47
  store i32 0, ptr %20, align 4, !tbaa !47
  br label %25

25:                                               ; preds = %154, %8
  %26 = load i32, ptr %20, align 4, !tbaa !47
  %27 = icmp slt i32 %26, 4
  br i1 %27, label %28, label %36

28:                                               ; preds = %25
  %29 = load ptr, ptr %9, align 8, !tbaa !61
  %30 = getelementptr inbounds nuw %struct.AVFrame, ptr %29, i32 0, i32 0
  %31 = load i32, ptr %20, align 4, !tbaa !47
  %32 = sext i32 %31 to i64
  %33 = getelementptr inbounds [8 x ptr], ptr %30, i64 0, i64 %32
  %34 = load ptr, ptr %33, align 8, !tbaa !77
  %35 = icmp ne ptr %34, null
  br label %36

36:                                               ; preds = %28, %25
  %37 = phi i1 [ false, %25 ], [ %35, %28 ]
  br i1 %37, label %38, label %157

38:                                               ; preds = %36
  store i32 0, ptr %19, align 4, !tbaa !47
  br label %39

39:                                               ; preds = %150, %38
  %40 = load ptr, ptr %15, align 8, !tbaa !77
  %41 = load i32, ptr %19, align 4, !tbaa !47
  %42 = sext i32 %41 to i64
  %43 = getelementptr inbounds i8, ptr %40, i64 %42
  %44 = load i8, ptr %43, align 1, !tbaa !68
  %45 = icmp ne i8 %44, 0
  br i1 %45, label %46, label %153

46:                                               ; preds = %39
  call void @llvm.lifetime.start.p0(i64 4, ptr %21) #10
  call void @llvm.lifetime.start.p0(i64 4, ptr %22) #10
  call void @llvm.lifetime.start.p0(i64 4, ptr %23) #10
  %47 = load ptr, ptr %16, align 8, !tbaa !77
  %48 = load i32, ptr %20, align 4, !tbaa !47
  %49 = sext i32 %48 to i64
  %50 = getelementptr inbounds i8, ptr %47, i64 %49
  %51 = load i8, ptr %50, align 1, !tbaa !68
  %52 = zext i8 %51 to i32
  store i32 %52, ptr %23, align 4, !tbaa !47
  %53 = load i32, ptr %18, align 4, !tbaa !47
  %54 = sub nsw i32 %53, 1
  store i32 %54, ptr %21, align 4, !tbaa !47
  br label %55

55:                                               ; preds = %146, %46
  %56 = load i32, ptr %21, align 4, !tbaa !47
  %57 = icmp sge i32 %56, 0
  br i1 %57, label %58, label %149

58:                                               ; preds = %55
  call void @llvm.lifetime.start.p0(i64 8, ptr %24) #10
  %59 = load ptr, ptr %9, align 8, !tbaa !61
  %60 = getelementptr inbounds nuw %struct.AVFrame, ptr %59, i32 0, i32 0
  %61 = load i32, ptr %20, align 4, !tbaa !47
  %62 = sext i32 %61 to i64
  %63 = getelementptr inbounds [8 x ptr], ptr %60, i64 0, i64 %62
  %64 = load ptr, ptr %63, align 8, !tbaa !77
  %65 = load i32, ptr %11, align 4, !tbaa !47
  %66 = load i32, ptr %19, align 4, !tbaa !47
  %67 = mul nsw i32 %66, 10
  %68 = add nsw i32 %65, %67
  %69 = load ptr, ptr %9, align 8, !tbaa !61
  %70 = getelementptr inbounds nuw %struct.AVFrame, ptr %69, i32 0, i32 1
  %71 = load i32, ptr %20, align 4, !tbaa !47
  %72 = sext i32 %71 to i64
  %73 = getelementptr inbounds [8 x i32], ptr %70, i64 0, i64 %72
  %74 = load i32, ptr %73, align 4, !tbaa !47
  %75 = mul nsw i32 %68, %74
  %76 = sext i32 %75 to i64
  %77 = getelementptr inbounds i8, ptr %64, i64 %76
  %78 = load i32, ptr %10, align 4, !tbaa !47
  %79 = sext i32 %78 to i64
  %80 = getelementptr inbounds i8, ptr %77, i64 %79
  store ptr %80, ptr %24, align 8, !tbaa !77
  store i32 128, ptr %22, align 4, !tbaa !47
  br label %81

81:                                               ; preds = %142, %58
  %82 = load i32, ptr %22, align 4, !tbaa !47
  %83 = icmp ne i32 %82, 0
  br i1 %83, label %84, label %145

84:                                               ; preds = %81
  %85 = load ptr, ptr %17, align 8, !tbaa !77
  %86 = load ptr, ptr %15, align 8, !tbaa !77
  %87 = load i32, ptr %19, align 4, !tbaa !47
  %88 = sext i32 %87 to i64
  %89 = getelementptr inbounds i8, ptr %86, i64 %88
  %90 = load i8, ptr %89, align 1, !tbaa !68
  %91 = sext i8 %90 to i32
  %92 = load i32, ptr %18, align 4, !tbaa !47
  %93 = mul nsw i32 %91, %92
  %94 = load i32, ptr %18, align 4, !tbaa !47
  %95 = add nsw i32 %93, %94
  %96 = sub nsw i32 %95, 1
  %97 = load i32, ptr %21, align 4, !tbaa !47
  %98 = sub nsw i32 %96, %97
  %99 = sext i32 %98 to i64
  %100 = getelementptr inbounds i8, ptr %85, i64 %99
  %101 = load i8, ptr %100, align 1, !tbaa !68
  %102 = zext i8 %101 to i32
  %103 = load i32, ptr %22, align 4, !tbaa !47
  %104 = and i32 %102, %103
  %105 = icmp ne i32 %104, 0
  br i1 %105, label %106, label %132

106:                                              ; preds = %84
  %107 = load ptr, ptr %24, align 8, !tbaa !77
  %108 = load i32, ptr %21, align 4, !tbaa !47
  %109 = sext i32 %108 to i64
  %110 = getelementptr inbounds i8, ptr %107, i64 %109
  %111 = load i8, ptr %110, align 1, !tbaa !68
  %112 = zext i8 %111 to i32
  %113 = sitofp i32 %112 to float
  %114 = load float, ptr %14, align 4, !tbaa !69
  %115 = load i32, ptr %23, align 4, !tbaa !47
  %116 = load ptr, ptr %24, align 8, !tbaa !77
  %117 = load i32, ptr %21, align 4, !tbaa !47
  %118 = sext i32 %117 to i64
  %119 = getelementptr inbounds i8, ptr %116, i64 %118
  %120 = load i8, ptr %119, align 1, !tbaa !68
  %121 = zext i8 %120 to i32
  %122 = sub nsw i32 %115, %121
  %123 = sitofp i32 %122 to float
  %124 = load float, ptr %13, align 4, !tbaa !69
  %125 = fmul nsz float %123, %124
  %126 = call nsz float @llvm.fmuladd.f32(float %113, float %114, float %125)
  %127 = fptoui float %126 to i8
  %128 = load ptr, ptr %24, align 8, !tbaa !77
  %129 = load i32, ptr %21, align 4, !tbaa !47
  %130 = sext i32 %129 to i64
  %131 = getelementptr inbounds i8, ptr %128, i64 %130
  store i8 %127, ptr %131, align 1, !tbaa !68
  br label %132

132:                                              ; preds = %106, %84
  %133 = load ptr, ptr %9, align 8, !tbaa !61
  %134 = getelementptr inbounds nuw %struct.AVFrame, ptr %133, i32 0, i32 1
  %135 = load i32, ptr %20, align 4, !tbaa !47
  %136 = sext i32 %135 to i64
  %137 = getelementptr inbounds [8 x i32], ptr %134, i64 0, i64 %136
  %138 = load i32, ptr %137, align 4, !tbaa !47
  %139 = load ptr, ptr %24, align 8, !tbaa !77
  %140 = sext i32 %138 to i64
  %141 = getelementptr inbounds i8, ptr %139, i64 %140
  store ptr %141, ptr %24, align 8, !tbaa !77
  br label %142

142:                                              ; preds = %132
  %143 = load i32, ptr %22, align 4, !tbaa !47
  %144 = ashr i32 %143, 1
  store i32 %144, ptr %22, align 4, !tbaa !47
  br label %81, !llvm.loop !222

145:                                              ; preds = %81
  call void @llvm.lifetime.end.p0(i64 8, ptr %24) #10
  br label %146

146:                                              ; preds = %145
  %147 = load i32, ptr %21, align 4, !tbaa !47
  %148 = add nsw i32 %147, -1
  store i32 %148, ptr %21, align 4, !tbaa !47
  br label %55, !llvm.loop !223

149:                                              ; preds = %55
  call void @llvm.lifetime.end.p0(i64 4, ptr %23) #10
  call void @llvm.lifetime.end.p0(i64 4, ptr %22) #10
  call void @llvm.lifetime.end.p0(i64 4, ptr %21) #10
  br label %150

150:                                              ; preds = %149
  %151 = load i32, ptr %19, align 4, !tbaa !47
  %152 = add nsw i32 %151, 1
  store i32 %152, ptr %19, align 4, !tbaa !47
  br label %39, !llvm.loop !224

153:                                              ; preds = %39
  br label %154

154:                                              ; preds = %153
  %155 = load i32, ptr %20, align 4, !tbaa !47
  %156 = add nsw i32 %155, 1
  store i32 %156, ptr %20, align 4, !tbaa !47
  br label %25, !llvm.loop !225

157:                                              ; preds = %36
  call void @llvm.lifetime.end.p0(i64 4, ptr %20) #10
  call void @llvm.lifetime.end.p0(i64 4, ptr %19) #10
  call void @llvm.lifetime.end.p0(i64 4, ptr %18) #10
  call void @llvm.lifetime.end.p0(i64 8, ptr %17) #10
  ret void
}