; Function Attrs: nofree norecurse nosync nounwind memory(readwrite, inaccessiblemem: none) uwtable
define internal void @idraw_vtext(ptr noundef readonly captures(none) %0, i32 noundef %1, i32 noundef %2, i32 %3, float noundef %4, float noundef %5, ptr noundef readonly captures(none) %6, ptr noundef readonly captures(none) %7) #6 {
  %9 = getelementptr inbounds nuw i8, ptr %0, i64 64
  %10 = sext i32 %1 to i64
  br label %11

11:                                               ; preds = %8, %._crit_edge
  %indvars.iv56 = phi i64 [ 0, %8 ], [ %indvars.iv.next57, %._crit_edge ]
  %12 = getelementptr inbounds nuw [8 x ptr], ptr %0, i64 0, i64 %indvars.iv56
  %13 = load ptr, ptr %12, align 8, !tbaa !71
  %.not = icmp eq ptr %13, null
  br i1 %.not, label %.critedge, label %.preheader

.preheader:                                       ; preds = %11
  %14 = load i8, ptr %6, align 1, !tbaa !62
  %.not4349 = icmp eq i8 %14, 0
  br i1 %.not4349, label %._crit_edge, label %.lr.ph

.lr.ph:                                           ; preds = %.preheader
  %15 = getelementptr inbounds nuw i8, ptr %7, i64 %indvars.iv56
  %16 = getelementptr inbounds nuw [8 x i32], ptr %9, i64 0, i64 %indvars.iv56
  %.pre.pre = load i32, ptr %16, align 4, !tbaa !44
  br label %17

17:                                               ; preds = %.lr.ph, %59
  %.pre = phi i32 [ %.pre.pre, %.lr.ph ], [ %.pre60, %59 ]
  %indvars.iv53 = phi i64 [ 0, %.lr.ph ], [ %indvars.iv.next54, %59 ]
  %18 = getelementptr inbounds nuw i8, ptr %6, i64 %indvars.iv53
  %19 = load i8, ptr %15, align 1, !tbaa !62
  %20 = zext i8 %19 to i32
  %21 = trunc i64 %indvars.iv53 to i32
  %22 = mul i32 %21, 10
  %23 = add nsw i32 %22, %2
  br label %24

24:                                               ; preds = %17, %58
  %.pre62 = phi i32 [ %.pre, %17 ], [ %.pre60, %58 ]
  %25 = phi i32 [ %.pre, %17 ], [ %54, %58 ]
  %indvars.iv = phi i64 [ 7, %17 ], [ %indvars.iv.next, %58 ]
  %26 = load ptr, ptr %12, align 8, !tbaa !71
  %27 = mul nsw i32 %25, %23
  %28 = sext i32 %27 to i64
  %29 = getelementptr inbounds i8, ptr %26, i64 %28
  %30 = getelementptr inbounds i8, ptr %29, i64 %10
  %31 = trunc nuw nsw i64 %indvars.iv to i32
  br label %32

32:                                               ; preds = %24, %53
  %.pre61 = phi i32 [ %.pre62, %24 ], [ %.pre60, %53 ]
  %33 = phi i32 [ %25, %24 ], [ %54, %53 ]
  %.047 = phi ptr [ %30, %24 ], [ %56, %53 ]
  %.04046 = phi i32 [ 128, %24 ], [ %57, %53 ]
  %34 = load i8, ptr %18, align 1, !tbaa !62
  %35 = sext i8 %34 to i32
  %36 = shl nsw i32 %35, 3
  %reass.sub = sub i32 %36, %31
  %37 = add i32 %reass.sub, 7
  %38 = sext i32 %37 to i64
  %39 = getelementptr inbounds i8, ptr @avpriv_cga_font, i64 %38
  %40 = load i8, ptr %39, align 1, !tbaa !62
  %41 = zext i8 %40 to i32
  %42 = and i32 %.04046, %41
  %.not45 = icmp eq i32 %42, 0
  br i1 %.not45, label %53, label %43

43:                                               ; preds = %32
  %44 = getelementptr inbounds nuw i8, ptr %.047, i64 %indvars.iv
  %45 = load i8, ptr %44, align 1, !tbaa !62
  %46 = zext i8 %45 to i32
  %47 = uitofp i8 %45 to float
  %48 = sub nsw i32 %20, %46
  %49 = sitofp i32 %48 to float
  %50 = fmul nsz float %4, %49
  %51 = tail call nsz float @llvm.fmuladd.f32(float %47, float %5, float %50)
  %52 = fptoui float %51 to i8
  store i8 %52, ptr %44, align 1, !tbaa !62
  %.pre59 = load i32, ptr %16, align 4, !tbaa !44
  br label %53

53:                                               ; preds = %43, %32
  %.pre60 = phi i32 [ %.pre59, %43 ], [ %.pre61, %32 ]
  %54 = phi i32 [ %.pre59, %43 ], [ %33, %32 ]
  %55 = sext i32 %54 to i64
  %56 = getelementptr inbounds i8, ptr %.047, i64 %55
  %57 = lshr i32 %.04046, 1
  %.not44 = icmp samesign ult i32 %.04046, 2
  br i1 %.not44, label %58, label %32, !llvm.loop !261

58:                                               ; preds = %53
  %indvars.iv.next = add nsw i64 %indvars.iv, -1
  %.not64 = icmp eq i64 %indvars.iv, 0
  br i1 %.not64, label %59, label %24, !llvm.loop !262

59:                                               ; preds = %58
  %indvars.iv.next54 = add nuw nsw i64 %indvars.iv53, 1
  %60 = getelementptr inbounds nuw i8, ptr %6, i64 %indvars.iv.next54
  %61 = load i8, ptr %60, align 1, !tbaa !62
  %.not43 = icmp eq i8 %61, 0
  br i1 %.not43, label %._crit_edge, label %17, !llvm.loop !263

._crit_edge:                                      ; preds = %59, %.preheader
  %indvars.iv.next57 = add nuw nsw i64 %indvars.iv56, 1
  %exitcond.not = icmp eq i64 %indvars.iv.next57, 4
  br i1 %exitcond.not, label %.critedge, label %11, !llvm.loop !264

.critedge:                                        ; preds = %._crit_edge, %11
  ret void
}